******************************************************************************
                  TI ARM Linker Unix v5.1.12                   
******************************************************************************
>> Linked Sun Aug  9 21:55:58 2015

OUTPUT FILE NAME:   <ravvn.out>
ENTRY POINT SYMBOL: "_c_int00"  address: 00004009


MEMORY CONFIGURATION

         name            origin    length      used     unused   attr    fill
----------------------  --------  ---------  --------  --------  ----  --------
  FLASH                 00000000   00100000  000054d8  000fab28  R  X
  SRAM                  20000000   00040000  00014f96  0002b06a  RW X


SEGMENT ALLOCATION MAP

run origin  load origin   length   init length attrs members
----------  ----------- ---------- ----------- ----- -------
00000000    00000000    000054d8   000054d8    r-x
  00000000    00000000    00000200   00000200    r-- .intvecs
  00000200    00000200    00004cd4   00004cd4    r-x .text
  00004ed4    00004ed4    00000524   00000524    r-- .const
  000053f8    000053f8    000000e0   000000e0    r-- .cinit
20000000    20000000    00014f9c   00000000    rw-
  20000000    20000000    00010d6a   00000000    rw- .bss
  20010d6c    20010d6c    00004000   00000000    rw- .stack
  20014d70    20014d70    0000022c   00000000    rw- .data


SECTION ALLOCATION MAP

 output                                  attributes/
section   page    origin      length       input sections
--------  ----  ----------  ----------   ----------------
.init_array 
*          0    00000000    00000000     UNINITIALIZED

.intvecs   0    00000000    00000200     
                  00000000    00000200     startup_ccs.obj (.intvecs)

.text      0    00000200    00004cd4     
                  00000200    0000029c     compdcm_task.obj (.text:CompDCMTask)
                  0000049c    00000290     sensorlib.lib : comp_dcm.obj (.text:CompDCMUpdate)
                  0000072c    00000238     ravvn.obj (.text:main)
                  00000964    00000214     pinout.obj (.text:PinoutSet)
                  00000b78    00000204     driverlib.lib : sysctl.obj (.text:SysCtlClockFreqSet)
                  00000d7c    000001ea     uartstdio.obj (.text:UARTvprintf)
                  00000f66    000001c8     sensorlib.lib : comp_dcm.obj (.text:CompDCMComputeQuaternion)
                  0000112e    000001b6     rtsv7M4_T_le_v4SPD16_eabi.lib : fd_add_t2.obj (.text)
                  000012e4    0000018c     sensorlib.lib : mpu9150.obj (.text:MPU9150Callback)
                  00001470    00000164     gpsuart.obj (.text:gpsUARTxIntHandler)
                  000015d4    00000160     uartstdio.obj (.text:UARTStdioIntHandler)
                  00001734    00000130     driverlib.lib : gpio.obj (.text:GPIOPadConfigSet)
                  00001864    00000114     tasks.obj (.text:xTaskIncrementTick)
                  00001978    00000100     queue.obj (.text:xQueueGenericReceive)
                  00001a78    000000fc     rtsv7M4_T_le_v4SPD16_eabi.lib : fd_mul_t2.obj (.text)
                  00001b74    000000f2     sensorlib.lib : i2cm_drv.obj (.text:I2CMIntHandler)
                  00001c66    00000002     startup_ccs.obj (.text:FaultISR)
                  00001c68    000000f0     command_task.obj (.text:CommandTask)
                  00001d58    000000e8     compdcm_task.obj (.text:CompDCMTaskInit)
                  00001e40    000000dc     tasks.obj (.text:xTaskGenericCreate)
                  00001f1c    000000d8     rtsv7M4_T_le_v4SPD16_eabi.lib : atan2f.obj (.text)
                  00001ff4    000000d0     tasks.obj (.text:xTaskResumeAll)
                  000020c4    000000c8     tasks.obj (.text:vTaskSwitchContext)
                  0000218c    000000c6     queue.obj (.text:xQueueGenericSend)
                  00002252    000000b8     sensorlib.lib : comp_dcm.obj (.text:CompDCMStart)
                  0000230a    00000002     startup_ccs.obj (.text:IntDefaultHandler)
                  0000230c    000000b0     compdcm_task.obj (.text:CompDCMAppErrorHandler)
                  000023bc    000000b0     uartstdio.obj (.text:UARTStdioConfig)
                  0000246c    000000b0     gpsuart.obj (.text:gpsUARTxConfig)
                  0000251c    000000b0     rtsv7M4_T_le_v4SPD16_eabi.lib : asinf.obj (.text)
                  000025cc    000000a8     uartstdio.obj (.text:UARTwrite)
                  00002674    000000a8     gpsuart.obj (.text:gpsUARTwrite)
                  0000271c    000000a8     rtsv7M4_T_le_v4SPD16_eabi.lib : xfatan.obj (.text)
                  000027c4    000000a6     portasm.obj (.text)
                  0000286a    00000002     startup_ccs.obj (.text:NmiSR)
                  0000286c    000000a0     sensorlib.lib : mpu9150.obj (.text:MPU9150DataMagnetoGetFloat)
                  0000290c    000000a0                   : mpu9150.obj (.text:MPU9150Write)
                  000029ac    0000009c     rtsv7M4_T_le_v4SPD16_eabi.lib : memcpy_t2.obj (.text)
                  00002a48    00000098     sensorlib.lib : i2cm_drv.obj (.text:I2CMStateIdle)
                  00002ae0    00000094     rtsv7M4_T_le_v4SPD16_eabi.lib : auto_init.obj (.text)
                  00002b74    00000090     timers.obj (.text:prvProcessReceivedCommands)
                  00002c04    0000008c     uartstdio.obj (.text:UARTPrimeTransmit)
                  00002c90    0000008c     gpsuart.obj (.text:gpsUARTPrimeTransmit)
                  00002d1c    00000088     sensorlib.lib : i2cm_drv.obj (.text:I2CMCommand)
                  00002da4    00000080     command_task.obj (.text:Cmd_help)
                  00002e24    0000007a     rtsv7M4_T_le_v4SPD16_eabi.lib : memset_t2.obj (.text)
                  00002e9e    00000002                                   : i_div0.obj (.text)
                  00002ea0    00000078     sensorlib.lib : mpu9150.obj (.text:MPU9150DataAccelGetFloat)
                  00002f18    00000078                   : mpu9150.obj (.text:MPU9150DataGyroGetFloat)
                  00002f90    00000070     queue.obj (.text:xQueueGenericReset)
                  00003000    00000070     tasks.obj (.text:xTaskRemoveFromEventList)
                  00003070    0000006c     sensorlib.lib : mpu9150.obj (.text:MPU9150Init)
                  000030dc    0000006c     tasks.obj (.text:vTaskPriorityInherit)
                  00003148    0000006a     queue.obj (.text:prvCopyDataToQueue)
                  000031b2    00000002     ravvn.obj (.text:vApplicationStackOverflowHook)
                  000031b4    00000068     command_task.obj (.text:CommandTaskInit)
                  0000321c    00000068     driverlib.lib : interrupt.obj (.text:IntDisable)
                  00003284    00000068                   : interrupt.obj (.text:IntEnable)
                  000032ec    00000068     tasks.obj (.text:vTaskSuspend)
                  00003354    00000064     GPS_task.obj (.text:ConfigureGPSUART)
                  000033b8    00000064     command_task.obj (.text:ConfigureUART)
                  0000341c    00000064     GPS_task.obj (.text:GPSTaskInit)
                  00003480    00000064     driverlib.lib : interrupt.obj (.text:IntIsEnabled)
                  000034e4    00000064     ravvn.obj (.text:SensorCloudStatTimerConfig)
                  00003548    00000062     queue.obj (.text:prvUnlockQueue)
                  000035aa    00000002     heap_1.obj (.text:vPortFree)
                  000035ac    00000060     cmdline.obj (.text:CmdLineProcess)
                  0000360c    00000060     sensorlib.lib : mpu9150.obj (.text:MPU9150DataRead)
                  0000366c    00000060     tasks.obj (.text:prvInitialiseTaskLists)
                  000036cc    00000060     timers.obj (.text:prvSwitchTimerLists)
                  0000372c    0000005e     sensorlib.lib : i2cm_drv.obj (.text:I2CMStateWritePause)
                  0000378a    0000005e     rtsv7M4_T_le_v4SPD16_eabi.lib : copy_decompress_rle.obj (.text)
                  000037e8    0000005c     tasks.obj (.text:vTaskDelayUntil)
                  00003844    0000005c     tasks.obj (.text:vTaskStartScheduler)
                  000038a0    00000058     GPS_task.obj (.text:GPSTask)
                  000038f8    00000058     tasks.obj (.text:prvCheckTasksWaitingTermination)
                  00003950    00000056     sensorlib.lib : vector.obj (.text:VectorCrossProduct)
                  000039a6    00000056     queue.obj (.text:xQueueGenericSendFromISR)
                  000039fc    00000054     sensorlib.lib : i2cm_drv.obj (.text:I2CMWrite8)
                  00003a50    00000054     uartstdio.obj (.text:UARTgets)
                  00003aa4    00000054     gpsuart.obj (.text:gpsUARTgets)
                  00003af8    00000054     tasks.obj (.text:xTaskCheckForTimeOut)
                  00003b4c    00000050     sensorlib.lib : i2cm_drv.obj (.text:I2CMStateWriteFinal)
                  00003b9c    00000050     driverlib.lib : sysctl.obj (.text:SysCtlPeripheralReset)
                  00003bec    00000050     tasks.obj (.text:prvInitialiseTCBVariables)
                  00003c3c    00000050     heap_1.obj (.text:pvPortMalloc)
                  00003c8c    0000004c     buttons.obj (.text:ButtonsInit)
                  00003cd8    0000004c     tasks.obj (.text:prvAddCurrentTaskToDelayedList)
                  00003d24    0000004c     timers.obj (.text:prvCheckForValidListAndQueue)
                  00003d70    0000004c     timers.obj (.text:prvProcessTimerOrBlockTask)
                  00003dbc    0000004c     queue.obj (.text:xQueueCreateMutex)
                  00003e08    0000004c     queue.obj (.text:xQueueGenericCreate)
                  00003e54    0000004a     sensorlib.lib : i2cm_drv.obj (.text:I2CMStateReadNext)
                  00003e9e    0000004a     rtsv7M4_T_le_v4SPD16_eabi.lib : fd_tos_t2.obj (.text)
                  00003ee8    00000048     sensorlib.lib : i2cm_drv.obj (.text:I2CMStateWriteNext)
                  00003f30    00000048     driverlib.lib : i2c.obj (.text:I2CMasterInitExpClk)
                  00003f78    00000048                   : sysctl.obj (.text:_SysCtlFrequencyGet)
                  00003fc0    00000048     timers.obj (.text:prvProcessExpiredTimer)
                  00004008    00000048     rtsv7M4_T_le_v4SPD16_eabi.lib : boot.obj (.text)
                  00004050    00000048     tasks.obj (.text:vTaskPriorityDisinherit)
                  00004098    00000044     sensorlib.lib : comp_dcm.obj (.text:CompDCMInit)
                  000040dc    00000044                   : i2cm_drv.obj (.text:I2CMStateCallback)
                  00004120    00000044     uartstdio.obj (.text:UARTPeek)
                  00004164    00000044     gpsuart.obj (.text:gpsUARTPeek)
                  000041a8    00000044     timers.obj (.text:prvInsertTimerInActiveList)
                  000041ec    00000044     rtsv7M4_T_le_v4SPD16_eabi.lib : cpy_tbl.obj (.text)
                  00004230    00000044                                   : exit.obj (.text)
                  00004274    00000044     tasks.obj (.text:vTaskPlaceOnEventList)
                  000042b8    00000044     timers.obj (.text:xTimerCreateTimerTask)
                  000042fc    00000042     sensorlib.lib : comp_dcm.obj (.text:CompDCMComputeEulers)
                  0000433e    00000040                   : i2cm_drv.obj (.text:I2CMStateReadFinal)
                  0000437e    00000002     --HOLE-- [fill = 0]
                  00004380    00000040     compdcm_task.obj (.text:IntHandlerGPIOPortM)
                  000043c0    00000040     rtsv7M4_T_le_v4SPD16_eabi.lib : signal.obj (.text)
                  00004400    00000040                                   : u_divt2.obj (.text)
                  00004440    00000040     port.obj (.text:xPortStartScheduler)
                  00004480    00000040     timers.obj (.text:xTimerGenericCommand)
                  000044c0    0000003e     sensorlib.lib : i2cm_drv.obj (.text:I2CMStateReadPause)
                  000044fe    00000002     --HOLE-- [fill = 0]
                  00004500    0000003c     uartstdio.obj (.text:UARTFlushTx)
                  0000453c    0000003c     gpsuart.obj (.text:gpsUARTFlushTx)
                  00004578    0000003c     queue.obj (.text:vQueueWaitForMessageRestricted)
                  000045b4    0000003a     sensorlib.lib : i2cm_drv.obj (.text:I2CMWrite8Callback)
                  000045ee    00000002     --HOLE-- [fill = 0]
                  000045f0    00000038     driverlib.lib : sysctl.obj (.text:SysCtlPeripheralReady)
                  00004628    00000038     rtsv7M4_T_le_v4SPD16_eabi.lib : fs_tod_t2.obj (.text)
                  00004660    00000038     list.obj (.text:vListInsert)
                  00004698    00000036     tasks.obj (.text:prvAllocateTCBAndStack)
                  000046ce    00000002     --HOLE-- [fill = 0]
                  000046d0    00000034     command_task.obj (.text:Cmd_clear)
                  00004704    00000034     sensorlib.lib : i2cm_drv.obj (.text:I2CMInit)
                  00004738    00000034     rtsv7M4_T_le_v4SPD16_eabi.lib : feraiseexcept.obj (.text)
                  0000476c    00000034                                   : xfdtest.obj (.text)
                  000047a0    00000032     sensorlib.lib : vector.obj (.text:VectorAdd)
                  000047d2    00000030                   : i2cm_drv.obj (.text:I2CMTransferResume)
                  00004802    00000002     --HOLE-- [fill = 0]
                  00004804    00000030     rtsv7M4_T_le_v4SPD16_eabi.lib : xferaise.obj (.text)
                  00004834    0000002e                                   : raise.obj (.text)
                  00004862    00000002     --HOLE-- [fill = 0]
                  00004864    0000002c     compdcm_task.obj (.text:CompDCMAppCallback)
                  00004890    0000002c     uartstdio.obj (.text:UARTFlushRx)
                  000048bc    0000002c     gpsuart.obj (.text:gpsUARTFlushRx)
                  000048e8    0000002c     tasks.obj (.text:vTaskPlaceOnEventListRestricted)
                  00004914    0000002a     driverlib.lib : gpio.obj (.text:GPIODirModeSet)
                  0000493e    0000002a     sensorlib.lib : i2cm_drv.obj (.text:I2CMStateReadFirst)
                  00004968    00000028     ravvn.obj (.text:Timer0IntHandler)
                  00004990    00000028     timers.obj (.text:prvSampleTimeNow)
                  000049b8    00000026     sensorlib.lib : vector.obj (.text:VectorDotProduct)
                  000049de    00000026                   : vector.obj (.text:VectorScale)
                  00004a04    00000024     driverlib.lib : interrupt.obj (.text:IntPrioritySet)
                  00004a28    00000024     queue.obj (.text:prvCopyDataFromQueue)
                  00004a4c    00000024     rtsv7M4_T_le_v4SPD16_eabi.lib : sqrtf.obj (.text)
                  00004a70    00000022     port.obj (.text:pxPortInitialiseStack)
                  00004a92    00000022     rtsv7M4_T_le_v4SPD16_eabi.lib : memcmp.obj (.text)
                  00004ab4    00000022     list.obj (.text:uxListRemove)
                  00004ad6    00000020     sensorlib.lib : i2cm_drv.obj (.text:I2CMStateReadOne)
                  00004af6    00000002     --HOLE-- [fill = 0]
                  00004af8    00000020     timers.obj (.text:prvGetNextExpireTime)
                  00004b18    00000020     tasks.obj (.text:xTaskGetSchedulerState)
                  00004b38    0000001c     driverlib.lib : sysctl.obj (.text:_SysCtlMemTimingGet)
                  00004b54    0000001c     queue.obj (.text:prvIsQueueFull)
                  00004b70    0000001c     port.obj (.text:xPortSysTickHandler)
                  00004b8c    0000001a     sensorlib.lib : i2cm_drv.obj (.text:I2CMStateReadWait)
                  00004ba6    0000001a     uartstdio.obj (.text:UARTprintf)
                  00004bc0    0000001a     queue.obj (.text:prvIsQueueEmpty)
                  00004bda    00000018     uartstdio.obj (.text:IsBufferFull)
                  00004bf2    00000018     gpsuart.obj (.text:gpsIsBufferFull)
                  00004c0a    00000002     --HOLE-- [fill = 0]
                  00004c0c    00000018     rtsv7M4_T_le_v4SPD16_eabi.lib : args_main.obj (.text)
                  00004c24    00000018                                   : strcmp.obj (.text)
                  00004c3c    00000018     list.obj (.text:vListInsertEnd)
                  00004c54    00000018     tasks.obj (.text:vTaskSetTimeOutState)
                  00004c6c    00000018     tasks.obj (.text:xTaskGetTickCount)
                  00004c84    00000016     list.obj (.text:vListInitialise)
                  00004c9a    00000014     uartstdio.obj (.text:GetBufferCount)
                  00004cae    00000014     gpsuart.obj (.text:gpsGetBufferCount)
                  00004cc2    00000002     --HOLE-- [fill = 0]
                  00004cc4    00000014     port.obj (.text:prvSetupTimerInterrupt)
                  00004cd8    00000014     timers.obj (.text:prvTimerTask)
                  00004cec    00000014     rtsv7M4_T_le_v4SPD16_eabi.lib : _lock.obj (.text)
                  00004d00    00000014     port.obj (.text:vPortEnterCritical)
                  00004d14    00000014     port.obj (.text:vPortExitCritical)
                  00004d28    00000012     driverlib.lib : gpio.obj (.text:GPIOPinTypeEthernetLED)
                  00004d3a    00000012                   : gpio.obj (.text:GPIOPinTypeI2CSCL)
                  00004d4c    00000012     rtsv7M4_T_le_v4SPD16_eabi.lib : copy_zero_init.obj (.text:decompress:ZI)
                  00004d5e    00000012     tasks.obj (.text:prvDeleteTCB)
                  00004d70    00000010     gpsuart.obj (.text:gpsUARTEchoSet)
                  00004d80    00000010     port.obj (.text:vPortYield)
                  00004d90    00000010     port.obj (.text:vPortYieldFromISR)
                  00004da0    00000010     tasks.obj (.text:vTaskSuspendAll)
                  00004db0    0000000e     sensorlib.lib : comp_dcm.obj (.text:CompDCMAccelUpdate)
                  00004dbe    0000000e                   : comp_dcm.obj (.text:CompDCMGyroUpdate)
                  00004dcc    0000000e                   : comp_dcm.obj (.text:CompDCMMagnetoUpdate)
                  00004dda    0000000e     driverlib.lib : gpio.obj (.text:GPIOIntStatus)
                  00004de8    0000000e     uartstdio.obj (.text:IsBufferEmpty)
                  00004df6    0000000e     driverlib.lib : timer.obj (.text:TimerEnable)
                  00004e04    0000000e     rtsv7M4_T_le_v4SPD16_eabi.lib : copy_decompress_none.obj (.text:decompress:none)
                  00004e12    0000000e     gpsuart.obj (.text:gpsIsBufferEmpty)
                  00004e20    0000000e     rtsv7M4_T_le_v4SPD16_eabi.lib : xfdclass.obj (.text)
                  00004e2e    0000000c     driverlib.lib : gpio.obj (.text:GPIOIntEnable)
                  00004e3a    00000002     --HOLE-- [fill = 0]
                  00004e3c    0000000c                   : interrupt.obj (.text:IntTrigger)
                  00004e48    0000000c     ravvn.obj (.text:SensHubI2CIntHandler)
                  00004e54    0000000c     tasks.obj (.text:vTaskMissedYield)
                  00004e60    0000000c     tasks.obj (.text:xTaskGetCurrentTaskHandle)
                  00004e6c    0000000a     driverlib.lib : i2c.obj (.text:I2CMasterEnable)
                  00004e76    00000008                   : i2c.obj (.text:I2CMasterIntClear)
                  00004e7e    00000008                   : i2c.obj (.text:I2CMasterIntEnableEx)
                  00004e86    00000008                   : i2c.obj (.text:I2CMasterSlaveAddrSet)
                  00004e8e    00000008     tasks.obj (.text:prvIdleTask)
                  00004e96    00000006     driverlib.lib : gpio.obj (.text:GPIOIntClear)
                  00004e9c    00000006     startup_ccs.obj (.text:ResetISR)
                  00004ea2    00000006     driverlib.lib : uart.obj (.text:UARTClockSourceSet)
                  00004ea8    00000006     rtsv7M4_T_le_v4SPD16_eabi.lib : copy_decompress_rle.obj (.text:decompress:rle24)
                  00004eae    00000006     list.obj (.text:vListInitialiseItem)
                  00004eb4    00000004     command_task.obj (.text:Cmd_activate)
                  00004eb8    00000004     command_task.obj (.text:Cmd_connect)
                  00004ebc    00000004     command_task.obj (.text:Cmd_proxy)
                  00004ec0    00000004     command_task.obj (.text:Cmd_stats)
                  00004ec4    00000004     command_task.obj (.text:Cmd_sync)
                  00004ec8    00000004     driverlib.lib : i2c.obj (.text:I2CMasterControl)
                  00004ecc    00000004                   : i2c.obj (.text:I2CMasterDataGet)
                  00004ed0    00000004                   : i2c.obj (.text:I2CMasterDataPut)

.const     0    00004ed4    00000524     
                  00004ed4    00000150     command_task.obj (.const:.string)
                  00005024    00000120     driverlib.lib : sysctl.obj (.const:g_pppui32XTALtoVCO)
                  00005144    0000009c                   : interrupt.obj (.const:g_pui32Regs)
                  000051e0    00000070                   : interrupt.obj (.const)
                  00005250    0000006c                   : sysctl.obj (.const:g_pui32Xtals)
                  000052bc    0000004c     gpsuart.obj (.const)
                  00005308    00000034     rtsv7M4_T_le_v4SPD16_eabi.lib : xfatan.obj (.const)
                  0000533c    00000030     driverlib.lib : sysctl.obj (.const:g_sXTALtoMEMTIM)
                  0000536c    00000028     uartstdio.obj (.const)
                  00005394    00000020     sensorlib.lib : mpu9150.obj (.const)
                  000053b4    00000014     tasks.obj (.const:.string)
                  000053c8    00000012     gpsuart.obj (.const:.string)
                  000053da    00000002     --HOLE-- [fill = 0]
                  000053dc    00000012     uartstdio.obj (.const:.string)
                  000053ee    00000002     --HOLE-- [fill = 0]
                  000053f0    00000008     driverlib.lib : sysctl.obj (.const)

.cinit     0    000053f8    000000e0     
                  000053f8    000000b9     (.cinit..data.load) [load image, compression = rle]
                  000054b1    00000003     --HOLE-- [fill = 0]
                  000054b4    0000000c     (__TI_handler_table)
                  000054c0    00000008     (.cinit..bss.load) [load image, compression = zero_init]
                  000054c8    00000010     (__TI_cinit_table)

.bss       0    20000000    00010d6a     UNINITIALIZED
                  20000000    00010000     heap_1.obj (.bss:ucHeap)
                  20010000    00000400     uartstdio.obj (.bss:g_pcUARTTxBuffer)
                  20010400    00000400     gpsuart.obj (.bss:gps_gpcUARTTxBuffer)
                  20010800    00000140     tasks.obj (.bss:pxReadyTasksLists)
                  20010940    00000124     ravvn.obj (.bss:g_sI2CInst)
                  20010a64    00000080     uartstdio.obj (.bss:g_pcUARTRxBuffer)
                  20010ae4    00000080     gpsuart.obj (.bss:gps_gpcUARTRxBuffer)
                  20010b64    0000006c     compdcm_task.obj (.bss:g_sMPU9150Inst)
                  20010bd0    00000058     compdcm_task.obj (.bss:g_sCompDCMInst)
                  20010c28    00000048     compdcm_task.obj (.bss:g_sCompDCMData)
                  20010c70    00000024     cmdline.obj (.bss:g_ppcArgv)
                  20010c94    00000014     (.common:xActiveTimerList1)
                  20010ca8    00000014     (.common:xActiveTimerList2)
                  20010cbc    00000014     (.common:xDelayedTaskList1)
                  20010cd0    00000014     (.common:xDelayedTaskList2)
                  20010ce4    00000014     (.common:xPendingReadyList)
                  20010cf8    00000014     (.common:xSuspendedTaskList)
                  20010d0c    00000014     (.common:xTasksWaitingTermination)
                  20010d20    00000004     (.common:g_gpsUARTSemaphore)
                  20010d24    00000004     (.common:g_ui32PortNum)
                  20010d28    00000004     (.common:g_ui32SysClock)
                  20010d2c    00000004     (.common:g_vui8CompDCMI2CErrorStatus)
                  20010d30    00000004     (.common:g_vulRunTimeStatsCountValue)
                  20010d34    00000004     (.common:g_xCloudDataSemaphore)
                  20010d38    00000004     (.common:g_xCommandHandle)
                  20010d3c    00000004     (.common:g_xCompDCMDataReadySemaphore)
                  20010d40    00000004     (.common:g_xCompDCMHandle)
                  20010d44    00000004     (.common:g_xCompDCMTransactionCompleteSemaphore)
                  20010d48    00000004     (.common:g_xGPSHandle)
                  20010d4c    00000004     (.common:g_xI2CSemaphore)
                  20010d50    00000004     (.common:g_xUARTSemaphore)
                  20010d54    00000004     (.common:gps_gui32PortNum)
                  20010d58    00000004     (.common:pxCurrentTimerList)
                  20010d5c    00000004     (.common:pxDelayedTaskList)
                  20010d60    00000004     (.common:pxOverflowDelayedTaskList)
                  20010d64    00000004     (.common:pxOverflowTimerList)
                  20010d68    00000001     (.common:g_bDisableEcho)
                  20010d69    00000001     (.common:gps_gbDisableEcho)

.stack     0    20010d6c    00004000     UNINITIALIZED
                  20010d6c    00004000     --HOLE--

.data      0    20014d70    0000022c     UNINITIALIZED
                  20014d70    000000b0     rtsv7M4_T_le_v4SPD16_eabi.lib : signal.obj (.data:sigtable)
                  20014e20    00000078     command_task.obj (.data:g_psCmdTable)
                  20014e98    00000068     rtsv7M4_T_le_v4SPD16_eabi.lib : xfvalues.obj (.data)
                  20014f00    00000038     tasks.obj (.data)
                  20014f38    00000015     gpsuart.obj (.data)
                  20014f4d    00000003     buttons.obj (.data)
                  20014f50    00000015     uartstdio.obj (.data)
                  20014f65    00000003     --HOLE--
                  20014f68    00000008     heap_1.obj (.data)
                  20014f70    00000008     rtsv7M4_T_le_v4SPD16_eabi.lib : _lock.obj (.data)
                  20014f78    00000008                                   : exit.obj (.data)
                  20014f80    00000008                                   : feraiseexcept.obj (.data)
                  20014f88    00000008     timers.obj (.data)
                  20014f90    00000004     port.obj (.data)
                  20014f94    00000004     rtsv7M4_T_le_v4SPD16_eabi.lib : errno.obj (.data)
                  20014f98    00000004                                   : stkdepth_vars.obj (.data)


LINKER GENERATED COPY TABLES

__TI_cinit_table @ 000054c8 records: 2, size/record: 8, table size: 16
	.data: load addr=000053f8, load size=000000b9 bytes, run addr=20014d70, run size=0000022c bytes, compression=rle
	.bss: load addr=000054c0, load size=00000008 bytes, run addr=20000000, run size=00010d6a bytes, compression=zero_init


LINKER GENERATED HANDLER TABLE

__TI_handler_table @ 000054b4 records: 3, size/record: 4, table size: 12
	index: 0, handler: __TI_decompress_rle24
	index: 1, handler: __TI_decompress_none
	index: 2, handler: __TI_zero_init


GLOBAL SYMBOLS: SORTED ALPHABETICALLY BY Name 

address    name
--------   ----
00003c8d   ButtonsInit
00004231   C$$EXIT
000035ad   CmdLineProcess
00004eb5   Cmd_activate
000046d1   Cmd_clear
00004eb9   Cmd_connect
00002da5   Cmd_help
00004ebd   Cmd_proxy
00004ec1   Cmd_stats
00004ec5   Cmd_sync
000031b5   CommandTaskInit
00004db1   CompDCMAccelUpdate
00004865   CompDCMAppCallback
0000230d   CompDCMAppErrorHandler
000042fd   CompDCMComputeEulers
00000f67   CompDCMComputeQuaternion
00004dbf   CompDCMGyroUpdate
00004099   CompDCMInit
00004dcd   CompDCMMagnetoUpdate
00002253   CompDCMStart
00001d59   CompDCMTaskInit
0000049d   CompDCMUpdate
00003355   ConfigureGPSUART
000033b9   ConfigureUART
00004915   GPIODirModeSet
00004e97   GPIOIntClear
00004e2f   GPIOIntEnable
00004ddb   GPIOIntStatus
00001735   GPIOPadConfigSet
00004d29   GPIOPinTypeEthernetLED
00004d3b   GPIOPinTypeI2CSCL
0000341d   GPSTaskInit
00002d1d   I2CMCommand
00004705   I2CMInit
00001b75   I2CMIntHandler
000047d3   I2CMTransferResume
000039fd   I2CMWrite8
00004ec9   I2CMasterControl
00004ecd   I2CMasterDataGet
00004ed1   I2CMasterDataPut
00004e6d   I2CMasterEnable
00003f31   I2CMasterInitExpClk
00004e77   I2CMasterIntClear
00004e7f   I2CMasterIntEnableEx
00004e87   I2CMasterSlaveAddrSet
0000321d   IntDisable
00003285   IntEnable
00004381   IntHandlerGPIOPortM
00003481   IntIsEnabled
00004a05   IntPrioritySet
00004e3d   IntTrigger
00002ea1   MPU9150DataAccelGetFloat
00002f19   MPU9150DataGyroGetFloat
0000286d   MPU9150DataMagnetoGetFloat
0000360d   MPU9150DataRead
00003071   MPU9150Init
0000290d   MPU9150Write
00000965   PinoutSet
00004e9d   ResetISR
UNDEFED    SHT$$INIT_ARRAY$$Base
UNDEFED    SHT$$INIT_ARRAY$$Limit
00004e49   SensHubI2CIntHandler
000034e5   SensorCloudStatTimerConfig
00000b79   SysCtlClockFreqSet
000045f1   SysCtlPeripheralReady
00003b9d   SysCtlPeripheralReset
00004969   Timer0IntHandler
00004df7   TimerEnable
00004ea3   UARTClockSourceSet
00004891   UARTFlushRx
00004501   UARTFlushTx
00004121   UARTPeek
000023bd   UARTStdioConfig
000015d5   UARTStdioIntHandler
00003a51   UARTgets
00004ba7   UARTprintf
00000d7d   UARTvprintf
000025cd   UARTwrite
000047a1   VectorAdd
00003951   VectorCrossProduct
000049b9   VectorDotProduct
000049df   VectorScale
20014f94   _Errno
0000271d   _FAtan
00004e21   _FDclass
20014e98   _FDenorm
0000476d   _FDtest
20014ea8   _FEps
20014eb8   _FInf
20014ec8   _FNan
20014ee8   _FRteps
20014ed8   _FSnan
20014ef8   _FXbig
20014efc   _FZero
20014f80   _Fenv
00004805   _Feraise
20014f84   _Tls_setup__Fenv
20014d6c   __STACK_END
00004000   __STACK_SIZE
20014d6c   __STACK_TOP
000054c8   __TI_CINIT_Base
000054d8   __TI_CINIT_Limit
000054b4   __TI_Handler_Table_Base
000054c0   __TI_Handler_Table_Limit
00000001   __TI_args_main
00002ae1   __TI_auto_init
20014f78   __TI_cleanup_ptr
00004e05   __TI_decompress_none
00004ea9   __TI_decompress_rle24
20014f7c   __TI_dtors_ptr
00000000   __TI_static_base__
00004d4d   __TI_zero_init
00003e9f   __aeabi_d2f
00001139   __aeabi_dadd
00001a79   __aeabi_dmul
0000112f   __aeabi_dsub
00004629   __aeabi_f2d
00002e9f   __aeabi_idiv0
00002e25   __aeabi_memclr
00002e25   __aeabi_memclr4
00002e25   __aeabi_memclr8
000029ad   __aeabi_memcpy
000029ad   __aeabi_memcpy4
000029ad   __aeabi_memcpy8
00002e27   __aeabi_memset
00002e27   __aeabi_memset4
00002e27   __aeabi_memset8
00004401   __aeabi_uidiv
00004401   __aeabi_uidivmod
ffffffff   __binit__
ffffffff   __c_args__
20010d6c   __stack
00004c0d   _args_main
00004009   _c_int00
20014f70   _lock
00004cfb   _nop
00004cf3   _register_lock
00004ced   _register_unlock
20014f74   _unlock
00004235   abort
0000251d   asinf
00001f1d   atan2f
ffffffff   binit
000041ed   copy_in
0000423d   exit
00004739   feraiseexcept
20010d20   g_gpsUARTSemaphore
00000000   g_pfnVectors
20014e20   g_psCmdTable
20010c28   g_sCompDCMData
20010bd0   g_sCompDCMInst
20010940   g_sI2CInst
20010b64   g_sMPU9150Inst
20010d28   g_ui32SysClock
20010d2c   g_vui8CompDCMI2CErrorStatus
20010d30   g_vulRunTimeStatsCountValue
20010d34   g_xCloudDataSemaphore
20010d38   g_xCommandHandle
20010d3c   g_xCompDCMDataReadySemaphore
20010d40   g_xCompDCMHandle
20010d44   g_xCompDCMTransactionCompleteSemaphore
20010d48   g_xGPSHandle
20010d4c   g_xI2CSemaphore
20010d50   g_xUARTSemaphore
00004d71   gpsUARTEchoSet
000048bd   gpsUARTFlushRx
0000453d   gpsUARTFlushTx
00004165   gpsUARTPeek
00003aa5   gpsUARTgets
00002675   gpsUARTwrite
0000246d   gpsUARTxConfig
00001471   gpsUARTxIntHandler
0000072d   main
20014f98   main_func_sp
00004a93   memcmp
000029ad   memcpy
00002e2d   memset
00003c3d   pvPortMalloc
20014f00   pxCurrentTCB
00004a71   pxPortInitialiseStack
00004835   raise
000043c1   signal
00004a4d   sqrtf
00004c25   strcmp
00004ab5   uxListRemove
000031b3   vApplicationStackOverflowHook
00004c85   vListInitialise
00004eaf   vListInitialiseItem
00004661   vListInsert
00004c3d   vListInsertEnd
00002821   vPortClearInterruptMask
00002859   vPortEnableVFP
00004d01   vPortEnterCritical
00004d15   vPortExitCritical
000035ab   vPortFree
0000282b   vPortSVCHandler
00002817   vPortSetInterruptMask
00002845   vPortStartFirstTask
00004d81   vPortYield
00004d91   vPortYieldFromISR
00004579   vQueueWaitForMessageRestricted
000037e9   vTaskDelayUntil
00004e55   vTaskMissedYield
00004275   vTaskPlaceOnEventList
000048e9   vTaskPlaceOnEventListRestricted
00004051   vTaskPriorityDisinherit
000030dd   vTaskPriorityInherit
00004c55   vTaskSetTimeOutState
00003845   vTaskStartScheduler
000032ed   vTaskSuspend
00004da1   vTaskSuspendAll
000020c5   vTaskSwitchContext
000027c9   xPortPendSVHandler
00004441   xPortStartScheduler
00004b71   xPortSysTickHandler
00003dbd   xQueueCreateMutex
00003e09   xQueueGenericCreate
00001979   xQueueGenericReceive
00002f91   xQueueGenericReset
0000218d   xQueueGenericSend
000039a7   xQueueGenericSendFromISR
00003af9   xTaskCheckForTimeOut
00001e41   xTaskGenericCreate
00004e61   xTaskGetCurrentTaskHandle
00004b19   xTaskGetSchedulerState
00004c6d   xTaskGetTickCount
00001865   xTaskIncrementTick
00003001   xTaskRemoveFromEventList
00001ff5   xTaskResumeAll
000042b9   xTimerCreateTimerTask
00004481   xTimerGenericCommand


GLOBAL SYMBOLS: SORTED BY Symbol Address 

address    name
--------   ----
00000000   __TI_static_base__
00000000   g_pfnVectors
00000001   __TI_args_main
0000049d   CompDCMUpdate
0000072d   main
00000965   PinoutSet
00000b79   SysCtlClockFreqSet
00000d7d   UARTvprintf
00000f67   CompDCMComputeQuaternion
0000112f   __aeabi_dsub
00001139   __aeabi_dadd
00001471   gpsUARTxIntHandler
000015d5   UARTStdioIntHandler
00001735   GPIOPadConfigSet
00001865   xTaskIncrementTick
00001979   xQueueGenericReceive
00001a79   __aeabi_dmul
00001b75   I2CMIntHandler
00001d59   CompDCMTaskInit
00001e41   xTaskGenericCreate
00001f1d   atan2f
00001ff5   xTaskResumeAll
000020c5   vTaskSwitchContext
0000218d   xQueueGenericSend
00002253   CompDCMStart
0000230d   CompDCMAppErrorHandler
000023bd   UARTStdioConfig
0000246d   gpsUARTxConfig
0000251d   asinf
000025cd   UARTwrite
00002675   gpsUARTwrite
0000271d   _FAtan
000027c9   xPortPendSVHandler
00002817   vPortSetInterruptMask
00002821   vPortClearInterruptMask
0000282b   vPortSVCHandler
00002845   vPortStartFirstTask
00002859   vPortEnableVFP
0000286d   MPU9150DataMagnetoGetFloat
0000290d   MPU9150Write
000029ad   __aeabi_memcpy
000029ad   __aeabi_memcpy4
000029ad   __aeabi_memcpy8
000029ad   memcpy
00002ae1   __TI_auto_init
00002d1d   I2CMCommand
00002da5   Cmd_help
00002e25   __aeabi_memclr
00002e25   __aeabi_memclr4
00002e25   __aeabi_memclr8
00002e27   __aeabi_memset
00002e27   __aeabi_memset4
00002e27   __aeabi_memset8
00002e2d   memset
00002e9f   __aeabi_idiv0
00002ea1   MPU9150DataAccelGetFloat
00002f19   MPU9150DataGyroGetFloat
00002f91   xQueueGenericReset
00003001   xTaskRemoveFromEventList
00003071   MPU9150Init
000030dd   vTaskPriorityInherit
000031b3   vApplicationStackOverflowHook
000031b5   CommandTaskInit
0000321d   IntDisable
00003285   IntEnable
000032ed   vTaskSuspend
00003355   ConfigureGPSUART
000033b9   ConfigureUART
0000341d   GPSTaskInit
00003481   IntIsEnabled
000034e5   SensorCloudStatTimerConfig
000035ab   vPortFree
000035ad   CmdLineProcess
0000360d   MPU9150DataRead
000037e9   vTaskDelayUntil
00003845   vTaskStartScheduler
00003951   VectorCrossProduct
000039a7   xQueueGenericSendFromISR
000039fd   I2CMWrite8
00003a51   UARTgets
00003aa5   gpsUARTgets
00003af9   xTaskCheckForTimeOut
00003b9d   SysCtlPeripheralReset
00003c3d   pvPortMalloc
00003c8d   ButtonsInit
00003dbd   xQueueCreateMutex
00003e09   xQueueGenericCreate
00003e9f   __aeabi_d2f
00003f31   I2CMasterInitExpClk
00004000   __STACK_SIZE
00004009   _c_int00
00004051   vTaskPriorityDisinherit
00004099   CompDCMInit
00004121   UARTPeek
00004165   gpsUARTPeek
000041ed   copy_in
00004231   C$$EXIT
00004235   abort
0000423d   exit
00004275   vTaskPlaceOnEventList
000042b9   xTimerCreateTimerTask
000042fd   CompDCMComputeEulers
00004381   IntHandlerGPIOPortM
000043c1   signal
00004401   __aeabi_uidiv
00004401   __aeabi_uidivmod
00004441   xPortStartScheduler
00004481   xTimerGenericCommand
00004501   UARTFlushTx
0000453d   gpsUARTFlushTx
00004579   vQueueWaitForMessageRestricted
000045f1   SysCtlPeripheralReady
00004629   __aeabi_f2d
00004661   vListInsert
000046d1   Cmd_clear
00004705   I2CMInit
00004739   feraiseexcept
0000476d   _FDtest
000047a1   VectorAdd
000047d3   I2CMTransferResume
00004805   _Feraise
00004835   raise
00004865   CompDCMAppCallback
00004891   UARTFlushRx
000048bd   gpsUARTFlushRx
000048e9   vTaskPlaceOnEventListRestricted
00004915   GPIODirModeSet
00004969   Timer0IntHandler
000049b9   VectorDotProduct
000049df   VectorScale
00004a05   IntPrioritySet
00004a4d   sqrtf
00004a71   pxPortInitialiseStack
00004a93   memcmp
00004ab5   uxListRemove
00004b19   xTaskGetSchedulerState
00004b71   xPortSysTickHandler
00004ba7   UARTprintf
00004c0d   _args_main
00004c25   strcmp
00004c3d   vListInsertEnd
00004c55   vTaskSetTimeOutState
00004c6d   xTaskGetTickCount
00004c85   vListInitialise
00004ced   _register_unlock
00004cf3   _register_lock
00004cfb   _nop
00004d01   vPortEnterCritical
00004d15   vPortExitCritical
00004d29   GPIOPinTypeEthernetLED
00004d3b   GPIOPinTypeI2CSCL
00004d4d   __TI_zero_init
00004d71   gpsUARTEchoSet
00004d81   vPortYield
00004d91   vPortYieldFromISR
00004da1   vTaskSuspendAll
00004db1   CompDCMAccelUpdate
00004dbf   CompDCMGyroUpdate
00004dcd   CompDCMMagnetoUpdate
00004ddb   GPIOIntStatus
00004df7   TimerEnable
00004e05   __TI_decompress_none
00004e21   _FDclass
00004e2f   GPIOIntEnable
00004e3d   IntTrigger
00004e49   SensHubI2CIntHandler
00004e55   vTaskMissedYield
00004e61   xTaskGetCurrentTaskHandle
00004e6d   I2CMasterEnable
00004e77   I2CMasterIntClear
00004e7f   I2CMasterIntEnableEx
00004e87   I2CMasterSlaveAddrSet
00004e97   GPIOIntClear
00004e9d   ResetISR
00004ea3   UARTClockSourceSet
00004ea9   __TI_decompress_rle24
00004eaf   vListInitialiseItem
00004eb5   Cmd_activate
00004eb9   Cmd_connect
00004ebd   Cmd_proxy
00004ec1   Cmd_stats
00004ec5   Cmd_sync
00004ec9   I2CMasterControl
00004ecd   I2CMasterDataGet
00004ed1   I2CMasterDataPut
000054b4   __TI_Handler_Table_Base
000054c0   __TI_Handler_Table_Limit
000054c8   __TI_CINIT_Base
000054d8   __TI_CINIT_Limit
20010940   g_sI2CInst
20010b64   g_sMPU9150Inst
20010bd0   g_sCompDCMInst
20010c28   g_sCompDCMData
20010d20   g_gpsUARTSemaphore
20010d28   g_ui32SysClock
20010d2c   g_vui8CompDCMI2CErrorStatus
20010d30   g_vulRunTimeStatsCountValue
20010d34   g_xCloudDataSemaphore
20010d38   g_xCommandHandle
20010d3c   g_xCompDCMDataReadySemaphore
20010d40   g_xCompDCMHandle
20010d44   g_xCompDCMTransactionCompleteSemaphore
20010d48   g_xGPSHandle
20010d4c   g_xI2CSemaphore
20010d50   g_xUARTSemaphore
20010d6c   __stack
20014d6c   __STACK_END
20014d6c   __STACK_TOP
20014e20   g_psCmdTable
20014e98   _FDenorm
20014ea8   _FEps
20014eb8   _FInf
20014ec8   _FNan
20014ed8   _FSnan
20014ee8   _FRteps
20014ef8   _FXbig
20014efc   _FZero
20014f00   pxCurrentTCB
20014f70   _lock
20014f74   _unlock
20014f78   __TI_cleanup_ptr
20014f7c   __TI_dtors_ptr
20014f80   _Fenv
20014f84   _Tls_setup__Fenv
20014f94   _Errno
20014f98   main_func_sp
ffffffff   __binit__
ffffffff   __c_args__
ffffffff   binit
UNDEFED    SHT$$INIT_ARRAY$$Base
UNDEFED    SHT$$INIT_ARRAY$$Limit

[231 symbols]
